target datalayout = "e-m:e-p270:32:32-p271:32:32-p272:64:64-i64:64-i128:128-f80:128-n8:16:32:64-S128"
target triple = "x86_64-pc-linux-gnu"

%struct.phpdbg_btree = type { i64, i64, i8, ptr }
%union._phpdbg_btree_branch = type { [2 x ptr] }

; Function Attrs: nounwind uwtable
define hidden i32 @phpdbg_btree_delete(ptr noundef %0, i64 noundef %1) #0 {
  %3 = alloca i32, align 4
  %4 = alloca ptr, align 8
  %5 = alloca i64, align 8
  %6 = alloca i32, align 4
  %7 = alloca ptr, align 8
  %8 = alloca i32, align 4
  %9 = alloca i32, align 4
  %10 = alloca ptr, align 8
  %11 = alloca ptr, align 8
  store ptr %0, ptr %4, align 8
  store i64 %1, ptr %5, align 8
  %12 = load ptr, ptr %4, align 8
  %13 = getelementptr inbounds %struct.phpdbg_btree, ptr %12, i32 0, i32 1
  %14 = load i64, ptr %13, align 8
  %15 = trunc i64 %14 to i32
  store i32 %15, ptr %6, align 4
  %16 = load ptr, ptr %4, align 8
  %17 = getelementptr inbounds %struct.phpdbg_btree, ptr %16, i32 0, i32 3
  %18 = load ptr, ptr %17, align 8
  store ptr %18, ptr %7, align 8
  store i32 -1, ptr %8, align 4
  store ptr null, ptr %10, align 8
  br label %48

19:                                               ; No predecessors!
  br label %20

20:                                               ; preds = %53, %19
  %21 = load ptr, ptr %7, align 8
  %22 = getelementptr inbounds [2 x ptr], ptr %21, i64 0, i64 0
  %23 = load ptr, ptr %22, align 8
  %24 = icmp ne ptr %23, null
  br i1 %24, label %25, label %39

25:                                               ; preds = %20
  %26 = load ptr, ptr %7, align 8
  %27 = getelementptr inbounds [2 x ptr], ptr %26, i64 0, i64 1
  %28 = load ptr, ptr %27, align 8
  %29 = icmp ne ptr %28, null
  br i1 %29, label %30, label %39

30:                                               ; preds = %25
  %31 = load ptr, ptr %7, align 8
  store ptr %31, ptr %10, align 8
  %32 = load i32, ptr %6, align 4
  store i32 %32, ptr %8, align 4
  %33 = load i64, ptr %5, align 8
  %34 = load i32, ptr %6, align 4
  %35 = zext i32 %34 to i64
  %36 = lshr i64 %33, %35
  %37 = urem i64 %36, 2
  %38 = trunc i64 %37 to i32
  store i32 %38, ptr %9, align 4
  br label %39

39:                                               ; preds = %30, %25, %20
  %40 = load ptr, ptr %7, align 8
  %41 = load i64, ptr %5, align 8
  %42 = load i32, ptr %6, align 4
  %43 = zext i32 %42 to i64
  %44 = lshr i64 %41, %43
  %45 = urem i64 %44, 2
  %46 = getelementptr inbounds [2 x ptr], ptr %40, i64 0, i64 %45
  %47 = load ptr, ptr %46, align 8
  store ptr %47, ptr %7, align 8
  br label %48

48:                                               ; preds = %39, %2
  %49 = load ptr, ptr %7, align 8
  %50 = icmp eq ptr %49, null
  br i1 %50, label %51, label %52

51:                                               ; preds = %48
  store i32 -1, ptr %3, align 4
  br label %202

52:                                               ; preds = %48
  br label %53

53:                                               ; preds = %52
  %54 = load i32, ptr %6, align 4
  %55 = add nsw i32 %54, -1
  store i32 %55, ptr %6, align 4
  %56 = icmp ne i32 %54, 0
  br i1 %56, label %20, label %57

57:                                               ; preds = %53
  %58 = load ptr, ptr %4, align 8
  %59 = getelementptr inbounds %struct.phpdbg_btree, ptr %58, i32 0, i32 0
  %60 = load i64, ptr %59, align 8
  %61 = add i64 %60, -1
  store i64 %61, ptr %59, align 8
  %62 = load i32, ptr %8, align 4
  %63 = icmp eq i32 %62, -1
  br i1 %63, label %64, label %80

64:                                               ; preds = %57
  %65 = load ptr, ptr %4, align 8
  %66 = getelementptr inbounds %struct.phpdbg_btree, ptr %65, i32 0, i32 2
  %67 = load i8, ptr %66, align 8
  %68 = trunc i8 %67 to i1
  br i1 %68, label %69, label %73

69:                                               ; preds = %64
  %70 = load ptr, ptr %4, align 8
  %71 = getelementptr inbounds %struct.phpdbg_btree, ptr %70, i32 0, i32 3
  %72 = load ptr, ptr %71, align 8
  call void @free(ptr noundef %72) #7
  br label %77

73:                                               ; preds = %64
  %74 = load ptr, ptr %4, align 8
  %75 = getelementptr inbounds %struct.phpdbg_btree, ptr %74, i32 0, i32 3
  %76 = load ptr, ptr %75, align 8
  call void @_efree(ptr noundef %76)
  br label %77

77:                                               ; preds = %73, %69
  %78 = load ptr, ptr %4, align 8
  %79 = getelementptr inbounds %struct.phpdbg_btree, ptr %78, i32 0, i32 3
  store ptr null, ptr %79, align 8
  br label %201

80:                                               ; preds = %57
  %81 = load ptr, ptr %10, align 8
  %82 = load i32, ptr %9, align 4
  %83 = sext i32 %82 to i64
  %84 = getelementptr inbounds [2 x ptr], ptr %81, i64 0, i64 %83
  %85 = load ptr, ptr %84, align 8
  %86 = load ptr, ptr %10, align 8
  %87 = getelementptr inbounds %union._phpdbg_btree_branch, ptr %86, i64 1
  %88 = icmp eq ptr %85, %87
  br i1 %88, label %89, label %178

89:                                               ; preds = %80
  %90 = load ptr, ptr %10, align 8
  %91 = load i32, ptr %9, align 4
  %92 = icmp ne i32 %91, 0
  %93 = xor i1 %92, true
  %94 = zext i1 %93 to i32
  %95 = sext i32 %94 to i64
  %96 = getelementptr inbounds [2 x ptr], ptr %90, i64 0, i64 %95
  %97 = load ptr, ptr %96, align 8
  store ptr %97, ptr %11, align 8
  %98 = load ptr, ptr %10, align 8
  %99 = getelementptr inbounds %union._phpdbg_btree_branch, ptr %98, i64 1
  %100 = load ptr, ptr %10, align 8
  %101 = load i32, ptr %9, align 4
  %102 = icmp ne i32 %101, 0
  %103 = xor i1 %102, true
  %104 = zext i1 %103 to i32
  %105 = sext i32 %104 to i64
  %106 = getelementptr inbounds [2 x ptr], ptr %100, i64 0, i64 %105
  %107 = load ptr, ptr %106, align 8
  %108 = load i32, ptr %8, align 4
  %109 = add nsw i32 %108, 1
  %110 = sext i32 %109 to i64
  %111 = mul i64 %110, 16
  call void @llvm.memcpy.p0.p0.i64(ptr align 8 %99, ptr align 8 %107, i64 %111, i1 false)
  %112 = load ptr, ptr %4, align 8
  %113 = getelementptr inbounds %struct.phpdbg_btree, ptr %112, i32 0, i32 2
  %114 = load i8, ptr %113, align 8
  %115 = trunc i8 %114 to i1
  br i1 %115, label %116, label %125

116:                                              ; preds = %89
  %117 = load ptr, ptr %10, align 8
  %118 = load i32, ptr %9, align 4
  %119 = icmp ne i32 %118, 0
  %120 = xor i1 %119, true
  %121 = zext i1 %120 to i32
  %122 = sext i32 %121 to i64
  %123 = getelementptr inbounds [2 x ptr], ptr %117, i64 0, i64 %122
  %124 = load ptr, ptr %123, align 8
  call void @free(ptr noundef %124) #7
  br label %134

125:                                              ; preds = %89
  %126 = load ptr, ptr %10, align 8
  %127 = load i32, ptr %9, align 4
  %128 = icmp ne i32 %127, 0
  %129 = xor i1 %128, true
  %130 = zext i1 %129 to i32
  %131 = sext i32 %130 to i64
  %132 = getelementptr inbounds [2 x ptr], ptr %126, i64 0, i64 %131
  %133 = load ptr, ptr %132, align 8
  call void @_efree(ptr noundef %133)
  br label %134

134:                                              ; preds = %125, %116
  %135 = load ptr, ptr %10, align 8
  %136 = getelementptr inbounds %union._phpdbg_btree_branch, ptr %135, i64 1
  %137 = load ptr, ptr %10, align 8
  %138 = load i32, ptr %9, align 4
  %139 = icmp ne i32 %138, 0
  %140 = xor i1 %139, true
  %141 = zext i1 %140 to i32
  %142 = sext i32 %141 to i64
  %143 = getelementptr inbounds [2 x ptr], ptr %137, i64 0, i64 %142
  store ptr %136, ptr %143, align 8
  %144 = load ptr, ptr %10, align 8
  %145 = load i32, ptr %9, align 4
  %146 = icmp ne i32 %145, 0
  %147 = xor i1 %146, true
  %148 = zext i1 %147 to i32
  %149 = sext i32 %148 to i64
  %150 = getelementptr inbounds [2 x ptr], ptr %144, i64 0, i64 %149
  %151 = load ptr, ptr %150, align 8
  store ptr %151, ptr %7, align 8
  %152 = load i32, ptr %8, align 4
  store i32 %152, ptr %6, align 4
  br label %153

153:                                              ; preds = %157, %134
  %154 = load i32, ptr %6, align 4
  %155 = add nsw i32 %154, -1
  store i32 %155, ptr %6, align 4
  %156 = icmp ne i32 %154, 0
  br i1 %156, label %157, label %177

157:                                              ; preds = %153
  %158 = load ptr, ptr %10, align 8
  %159 = load i32, ptr %8, align 4
  %160 = sext i32 %159 to i64
  %161 = getelementptr inbounds %union._phpdbg_btree_branch, ptr %158, i64 %160
  %162 = load i32, ptr %6, align 4
  %163 = sext i32 %162 to i64
  %164 = sub i64 0, %163
  %165 = getelementptr inbounds %union._phpdbg_btree_branch, ptr %161, i64 %164
  %166 = getelementptr inbounds %union._phpdbg_btree_branch, ptr %165, i64 1
  %167 = load ptr, ptr %7, align 8
  %168 = load ptr, ptr %7, align 8
  %169 = getelementptr inbounds [2 x ptr], ptr %168, i64 0, i64 1
  %170 = load ptr, ptr %169, align 8
  %171 = load ptr, ptr %11, align 8
  %172 = getelementptr inbounds %union._phpdbg_btree_branch, ptr %171, i32 1
  store ptr %172, ptr %11, align 8
  %173 = icmp eq ptr %170, %172
  %174 = zext i1 %173 to i32
  %175 = sext i32 %174 to i64
  %176 = getelementptr inbounds [2 x ptr], ptr %167, i64 0, i64 %175
  store ptr %166, ptr %176, align 8
  store ptr %166, ptr %7, align 8
  br label %153

177:                                              ; preds = %153
  br label %196

178:                                              ; preds = %80
  %179 = load ptr, ptr %4, align 8
  %180 = getelementptr inbounds %struct.phpdbg_btree, ptr %179, i32 0, i32 2
  %181 = load i8, ptr %180, align 8
  %182 = trunc i8 %181 to i1
  br i1 %182, label %183, label %189

183:                                              ; preds = %178
  %184 = load ptr, ptr %10, align 8
  %185 = load i32, ptr %9, align 4
  %186 = sext i32 %185 to i64
  %187 = getelementptr inbounds [2 x ptr], ptr %184, i64 0, i64 %186
  %188 = load ptr, ptr %187, align 8
  call void @free(ptr noundef %188) #7
  br label %195

189:                                              ; preds = %178
  %190 = load ptr, ptr %10, align 8
  %191 = load i32, ptr %9, align 4
  %192 = sext i32 %191 to i64
  %193 = getelementptr inbounds [2 x ptr], ptr %190, i64 0, i64 %192
  %194 = load ptr, ptr %193, align 8
  call void @_efree(ptr noundef %194)
  br label %195

195:                                              ; preds = %189, %183
  br label %196

196:                                              ; preds = %195, %177
  %197 = load ptr, ptr %10, align 8
  %198 = load i32, ptr %9, align 4
  %199 = sext i32 %198 to i64
  %200 = getelementptr inbounds [2 x ptr], ptr %197, i64 0, i64 %199
  store ptr null, ptr %200, align 8
  br label %201

201:                                              ; preds = %196, %77
  store i32 0, ptr %3, align 4
  br label %202

202:                                              ; preds = %201, %51
  %203 = load i32, ptr %3, align 4
  ret i32 %203
}