; Function Attrs: nounwind uwtable
define hidden noundef i32 @phpdbg_btree_delete(ptr nocapture noundef %0, i64 noundef %1) local_unnamed_addr #3 {
  %3 = getelementptr inbounds i8, ptr %0, i64 24
  %.05876 = load ptr, ptr %3, align 8
  %4 = icmp eq ptr %.05876, null
  br i1 %4, label %.loopexit72, label %.lr.ph.preheader

.lr.ph.preheader:                                 ; preds = %2
  %5 = getelementptr inbounds i8, ptr %0, i64 8
  %6 = load i64, ptr %5, align 8
  %7 = and i64 %6, 4294967295
  br label %.lr.ph

8:                                                ; preds = %.lr.ph
  %9 = load ptr, ptr %.05881, align 8
  %.not70 = icmp eq ptr %9, null
  br i1 %.not70, label %18, label %10

10:                                               ; preds = %8
  %11 = getelementptr inbounds i8, ptr %.05881, i64 8
  %12 = load ptr, ptr %11, align 8
  %.not71 = icmp eq ptr %12, null
  br i1 %.not71, label %18, label %13

13:                                               ; preds = %10
  %14 = and i64 %indvars.iv.next, 4294967295
  %15 = lshr i64 %1, %14
  %16 = trunc i64 %15 to i32
  %17 = and i32 %16, 1
  br label %18

18:                                               ; preds = %13, %10, %8
  %.056 = phi i32 [ %indvars, %13 ], [ %.15778, %10 ], [ %.15778, %8 ]
  %.054 = phi i32 [ %17, %13 ], [ %.15579, %10 ], [ %.15579, %8 ]
  %.053 = phi ptr [ %.05881, %13 ], [ %.180, %10 ], [ %.180, %8 ]
  %19 = and i64 %indvars.iv.next, 4294967295
  %20 = lshr i64 %1, %19
  %21 = and i64 %20, 1
  %22 = getelementptr inbounds [2 x ptr], ptr %.05881, i64 0, i64 %21
  %.058 = load ptr, ptr %22, align 8
  %23 = icmp eq ptr %.058, null
  br i1 %23, label %.loopexit72, label %.lr.ph

.lr.ph:                                           ; preds = %.lr.ph.preheader, %18
  %indvars.iv = phi i64 [ %7, %.lr.ph.preheader ], [ %indvars.iv.next, %18 ]
  %.05881 = phi ptr [ %.05876, %.lr.ph.preheader ], [ %.058, %18 ]
  %.180 = phi ptr [ null, %.lr.ph.preheader ], [ %.053, %18 ]
  %.15579 = phi i32 [ undef, %.lr.ph.preheader ], [ %.054, %18 ]
  %.15778 = phi i32 [ -1, %.lr.ph.preheader ], [ %.056, %18 ]
  %indvars.iv.next = add nsw i64 %indvars.iv, -1
  %indvars = trunc i64 %indvars.iv.next to i32
  %.not = icmp eq i64 %indvars.iv, 0
  br i1 %.not, label %24, label %8

24:                                               ; preds = %.lr.ph
  %25 = load i64, ptr %0, align 8
  %26 = add i64 %25, -1
  store i64 %26, ptr %0, align 8
  %27 = icmp eq i32 %.15778, -1
  br i1 %27, label %28, label %34

28:                                               ; preds = %24
  %29 = getelementptr inbounds i8, ptr %0, i64 16
  %30 = load i8, ptr %29, align 8
  %31 = and i8 %30, 1
  %.not69 = icmp eq i8 %31, 0
  br i1 %.not69, label %33, label %32

32:                                               ; preds = %28
  tail call void @free(ptr noundef %.05876) #12
  br label %.loopexit72.sink.split

33:                                               ; preds = %28
  tail call void @_efree(ptr noundef nonnull %.05876) #12
  br label %.loopexit72.sink.split

34:                                               ; preds = %24
  %35 = sext i32 %.15579 to i64
  %36 = getelementptr inbounds [2 x ptr], ptr %.180, i64 0, i64 %35
  %37 = load ptr, ptr %36, align 8
  %38 = getelementptr inbounds i8, ptr %.180, i64 16
  %39 = icmp eq ptr %37, %38
  br i1 %39, label %40, label %65

40:                                               ; preds = %34
  %.not66 = icmp eq i32 %.15579, 0
  %41 = zext i1 %.not66 to i64
  %42 = getelementptr inbounds [2 x ptr], ptr %.180, i64 0, i64 %41
  %43 = load ptr, ptr %42, align 8
  %44 = add nuw nsw i32 %.15778, 1
  %45 = sext i32 %44 to i64
  %46 = shl nsw i64 %45, 4
  tail call void @llvm.memcpy.p0.p0.i64(ptr noundef nonnull align 8 dereferenceable(1) %37, ptr noundef nonnull align 8 dereferenceable(1) %43, i64 %46, i1 false)
  %47 = getelementptr inbounds i8, ptr %0, i64 16
  %48 = load i8, ptr %47, align 8
  %49 = and i8 %48, 1
  %.not67 = icmp eq i8 %49, 0
  %50 = load ptr, ptr %42, align 8
  br i1 %.not67, label %52, label %51

51:                                               ; preds = %40
  tail call void @free(ptr noundef %50) #12
  br label %53

52:                                               ; preds = %40
  tail call void @_efree(ptr noundef %50) #12
  br label %53

53:                                               ; preds = %52, %51
  store ptr %37, ptr %42, align 8
  %.not6882 = icmp eq i32 %.15778, 0
  br i1 %.not6882, label %.loopexit72.sink.split, label %.lr.ph86

.lr.ph86:                                         ; preds = %53
  %54 = sext i32 %.15778 to i64
  %55 = getelementptr inbounds %union._phpdbg_btree_branch, ptr %.180, i64 %54
  %invariant.gep = getelementptr i8, ptr %55, i64 16
  br label %56

56:                                               ; preds = %.lr.ph86, %56
  %indvars.iv91 = phi i64 [ %54, %.lr.ph86 ], [ %indvars.iv.next92, %56 ]
  %.085 = phi ptr [ %43, %.lr.ph86 ], [ %60, %56 ]
  %.15984 = phi ptr [ %37, %.lr.ph86 ], [ %gep, %56 ]
  %indvars.iv.next92 = add nsw i64 %indvars.iv91, -1
  %57 = sub nsw i64 1, %indvars.iv91
  %gep = getelementptr %union._phpdbg_btree_branch, ptr %invariant.gep, i64 %57
  %58 = getelementptr inbounds i8, ptr %.15984, i64 8
  %59 = load ptr, ptr %58, align 8
  %60 = getelementptr inbounds i8, ptr %.085, i64 16
  %61 = icmp eq ptr %59, %60
  %62 = zext i1 %61 to i64
  %63 = getelementptr inbounds [2 x ptr], ptr %.15984, i64 0, i64 %62
  store ptr %gep, ptr %63, align 8
  %64 = and i64 %indvars.iv.next92, 4294967295
  %.not68 = icmp eq i64 %64, 0
  br i1 %.not68, label %.loopexit72.sink.split, label %56

65:                                               ; preds = %34
  %66 = getelementptr inbounds i8, ptr %0, i64 16
  %67 = load i8, ptr %66, align 8
  %68 = and i8 %67, 1
  %.not65 = icmp eq i8 %68, 0
  br i1 %.not65, label %70, label %69

69:                                               ; preds = %65
  tail call void @free(ptr noundef %37) #12
  br label %.loopexit72.sink.split

70:                                               ; preds = %65
  tail call void @_efree(ptr noundef %37) #12
  br label %.loopexit72.sink.split

.loopexit72.sink.split:                           ; preds = %56, %70, %69, %53, %32, %33
  %.sink = phi ptr [ %3, %33 ], [ %3, %32 ], [ %36, %53 ], [ %36, %69 ], [ %36, %70 ], [ %36, %56 ]
  store ptr null, ptr %.sink, align 8
  br label %.loopexit72

.loopexit72:                                      ; preds = %18, %.loopexit72.sink.split, %2
  %.062 = phi i32 [ -1, %2 ], [ 0, %.loopexit72.sink.split ], [ -1, %18 ]
  ret i32 %.062
}